; ModuleID = '20/119.c'
source_filename = "20/119.c"
target datalayout = "e-m:e-p270:32:32-p271:32:32-p272:64:64-i64:64-f80:128-n8:16:32:64-S128"
target triple = "x86_64-pc-linux-gnu"

@.str = private unnamed_addr constant [3 x i8] c"%c\00", align 1
@.str.1 = private unnamed_addr constant [2 x i8] c"\0A\00", align 1

; Function Attrs: noinline nounwind uwtable
define dso_local void @main() #0 {
  %1 = alloca [100 x [15 x i8]], align 16
  %2 = alloca i32, align 4
  %3 = alloca i32, align 4
  %4 = alloca i32, align 4
  %5 = alloca i32, align 4
  %6 = alloca i32, align 4
  %7 = alloca i32, align 4
  %8 = bitcast [100 x [15 x i8]]* %1 to i8*
  call void @llvm.memset.p0i8.i64(i8* align 16 %8, i8 0, i64 1500, i1 false)
  store i32 0, i32* %2, align 4
  br label %9

9:                                                ; preds = %17, %0
  %10 = load i32, i32* %2, align 4
  %11 = sext i32 %10 to i64
  %12 = getelementptr inbounds [100 x [15 x i8]], [100 x [15 x i8]]* %1, i64 0, i64 %11
  %13 = getelementptr inbounds [15 x i8], [15 x i8]* %12, i64 0, i64 0
  %14 = call i32 (i8*, ...) bitcast (i32 (...)* @gets to i32 (i8*, ...)*)(i8* %13)
  %15 = load i32, i32* %2, align 4
  %16 = add nsw i32 %15, 1
  store i32 %16, i32* %2, align 4
  br label %17

17:                                               ; preds = %9
  %18 = load i32, i32* %2, align 4
  %19 = sub nsw i32 %18, 1
  %20 = sext i32 %19 to i64
  %21 = getelementptr inbounds [100 x [15 x i8]], [100 x [15 x i8]]* %1, i64 0, i64 %20
  %22 = getelementptr inbounds [15 x i8], [15 x i8]* %21, i64 0, i64 0
  %23 = load i8, i8* %22, align 1
  %24 = sext i8 %23 to i32
  %25 = icmp ne i32 %24, 0
  br i1 %25, label %9, label %26

26:                                               ; preds = %17
  %27 = load i32, i32* %2, align 4
  %28 = sub nsw i32 %27, 2
  store i32 %28, i32* %3, align 4
  store i32 0, i32* %2, align 4
  br label %29

29:                                               ; preds = %138, %26
  %30 = load i32, i32* %2, align 4
  %31 = load i32, i32* %3, align 4
  %32 = icmp sle i32 %30, %31
  br i1 %32, label %33, label %141

33:                                               ; preds = %29
  %34 = load i32, i32* %2, align 4
  %35 = sext i32 %34 to i64
  %36 = getelementptr inbounds [100 x [15 x i8]], [100 x [15 x i8]]* %1, i64 0, i64 %35
  %37 = getelementptr inbounds [15 x i8], [15 x i8]* %36, i64 0, i64 0
  %38 = call i64 @strlen(i8* %37) #4
  %39 = trunc i64 %38 to i32
  store i32 %39, i32* %4, align 4
  %40 = load i32, i32* %2, align 4
  %41 = sext i32 %40 to i64
  %42 = getelementptr inbounds [100 x [15 x i8]], [100 x [15 x i8]]* %1, i64 0, i64 %41
  %43 = getelementptr inbounds [15 x i8], [15 x i8]* %42, i64 0, i64 0
  %44 = load i8, i8* %43, align 1
  %45 = sext i8 %44 to i32
  store i32 %45, i32* %5, align 4
  store i32 1, i32* %6, align 4
  br label %46

46:                                               ; preds = %73, %33
  %47 = load i32, i32* %6, align 4
  %48 = load i32, i32* %4, align 4
  %49 = sub nsw i32 %48, 4
  %50 = icmp slt i32 %47, %49
  br i1 %50, label %51, label %76

51:                                               ; preds = %46
  %52 = load i32, i32* %2, align 4
  %53 = sext i32 %52 to i64
  %54 = getelementptr inbounds [100 x [15 x i8]], [100 x [15 x i8]]* %1, i64 0, i64 %53
  %55 = load i32, i32* %6, align 4
  %56 = sext i32 %55 to i64
  %57 = getelementptr inbounds [15 x i8], [15 x i8]* %54, i64 0, i64 %56
  %58 = load i8, i8* %57, align 1
  %59 = sext i8 %58 to i32
  %60 = load i32, i32* %5, align 4
  %61 = icmp sgt i32 %59, %60
  br i1 %61, label %62, label %72

62:                                               ; preds = %51
  %63 = load i32, i32* %2, align 4
  %64 = sext i32 %63 to i64
  %65 = getelementptr inbounds [100 x [15 x i8]], [100 x [15 x i8]]* %1, i64 0, i64 %64
  %66 = load i32, i32* %6, align 4
  %67 = sext i32 %66 to i64
  %68 = getelementptr inbounds [15 x i8], [15 x i8]* %65, i64 0, i64 %67
  %69 = load i8, i8* %68, align 1
  %70 = sext i8 %69 to i32
  store i32 %70, i32* %5, align 4
  %71 = load i32, i32* %6, align 4
  store i32 %71, i32* %7, align 4
  br label %72

72:                                               ; preds = %62, %51
  br label %73

73:                                               ; preds = %72
  %74 = load i32, i32* %6, align 4
  %75 = add nsw i32 %74, 1
  store i32 %75, i32* %6, align 4
  br label %46

76:                                               ; preds = %46
  store i32 0, i32* %6, align 4
  br label %77

77:                                               ; preds = %91, %76
  %78 = load i32, i32* %6, align 4
  %79 = load i32, i32* %7, align 4
  %80 = icmp sle i32 %78, %79
  br i1 %80, label %81, label %94

81:                                               ; preds = %77
  %82 = load i32, i32* %2, align 4
  %83 = sext i32 %82 to i64
  %84 = getelementptr inbounds [100 x [15 x i8]], [100 x [15 x i8]]* %1, i64 0, i64 %83
  %85 = load i32, i32* %6, align 4
  %86 = sext i32 %85 to i64
  %87 = getelementptr inbounds [15 x i8], [15 x i8]* %84, i64 0, i64 %86
  %88 = load i8, i8* %87, align 1
  %89 = sext i8 %88 to i32
  %90 = call i32 (i8*, ...) @printf(i8* getelementptr inbounds ([3 x i8], [3 x i8]* @.str, i64 0, i64 0), i32 %89)
  br label %91

91:                                               ; preds = %81
  %92 = load i32, i32* %6, align 4
  %93 = add nsw i32 %92, 1
  store i32 %93, i32* %6, align 4
  br label %77

94:                                               ; preds = %77
  %95 = load i32, i32* %4, align 4
  %96 = sub nsw i32 %95, 3
  store i32 %96, i32* %6, align 4
  br label %97

97:                                               ; preds = %112, %94
  %98 = load i32, i32* %6, align 4
  %99 = load i32, i32* %4, align 4
  %100 = sub nsw i32 %99, 1
  %101 = icmp sle i32 %98, %100
  br i1 %101, label %102, label %115

102:                                              ; preds = %97
  %103 = load i32, i32* %2, align 4
  %104 = sext i32 %103 to i64
  %105 = getelementptr inbounds [100 x [15 x i8]], [100 x [15 x i8]]* %1, i64 0, i64 %104
  %106 = load i32, i32* %6, align 4
  %107 = sext i32 %106 to i64
  %108 = getelementptr inbounds [15 x i8], [15 x i8]* %105, i64 0, i64 %107
  %109 = load i8, i8* %108, align 1
  %110 = sext i8 %109 to i32
  %111 = call i32 (i8*, ...) @printf(i8* getelementptr inbounds ([3 x i8], [3 x i8]* @.str, i64 0, i64 0), i32 %110)
  br label %112

112:                                              ; preds = %102
  %113 = load i32, i32* %6, align 4
  %114 = add nsw i32 %113, 1
  store i32 %114, i32* %6, align 4
  br label %97

115:                                              ; preds = %97
  %116 = load i32, i32* %7, align 4
  %117 = add nsw i32 %116, 1
  store i32 %117, i32* %6, align 4
  br label %118

118:                                              ; preds = %133, %115
  %119 = load i32, i32* %6, align 4
  %120 = load i32, i32* %4, align 4
  %121 = sub nsw i32 %120, 4
  %122 = icmp slt i32 %119, %121
  br i1 %122, label %123, label %136

123:                                              ; preds = %118
  %124 = load i32, i32* %2, align 4
  %125 = sext i32 %124 to i64
  %126 = getelementptr inbounds [100 x [15 x i8]], [100 x [15 x i8]]* %1, i64 0, i64 %125
  %127 = load i32, i32* %6, align 4
  %128 = sext i32 %127 to i64
  %129 = getelementptr inbounds [15 x i8], [15 x i8]* %126, i64 0, i64 %128
  %130 = load i8, i8* %129, align 1
  %131 = sext i8 %130 to i32
  %132 = call i32 (i8*, ...) @printf(i8* getelementptr inbounds ([3 x i8], [3 x i8]* @.str, i64 0, i64 0), i32 %131)
  br label %133

133:                                              ; preds = %123
  %134 = load i32, i32* %6, align 4
  %135 = add nsw i32 %134, 1
  store i32 %135, i32* %6, align 4
  br label %118

136:                                              ; preds = %118
  %137 = call i32 (i8*, ...) @printf(i8* getelementptr inbounds ([2 x i8], [2 x i8]* @.str.1, i64 0, i64 0))
  br label %138

138:                                              ; preds = %136
  %139 = load i32, i32* %2, align 4
  %140 = add nsw i32 %139, 1
  store i32 %140, i32* %2, align 4
  br label %29

141:                                              ; preds = %29
  ret void
}

; Function Attrs: argmemonly nounwind willreturn
declare void @llvm.memset.p0i8.i64(i8* nocapture writeonly, i8, i64, i1 immarg) #1

declare dso_local i32 @gets(...) #2

; Function Attrs: nounwind readonly
declare dso_local i64 @strlen(i8*) #3

declare dso_local i32 @printf(i8*, ...) #2


!llvm.module.flags = !{!0}
!llvm.ident = !{!1}

!0 = !{i32 1, !"wchar_size", i32 4}
!1 = !{!"clang version 10.0.0-4ubuntu1 "}
